target datalayout = "e-m:e-p270:32:32-p271:32:32-p272:64:64-i64:64-i128:128-f80:128-n8:16:32:64-S128"
target triple = "x86_64-pc-linux-gnu"

%"class.std::vector" = type { %"struct.std::_Vector_base" }
%"struct.std::_Vector_base" = type { %"struct.std::_Vector_base<std::__cxx11::basic_string<char>, std::allocator<std::__cxx11::basic_string<char>>>::_Vector_impl" }
%"struct.std::_Vector_base<std::__cxx11::basic_string<char>, std::allocator<std::__cxx11::basic_string<char>>>::_Vector_impl" = type { %"struct.std::_Vector_base<std::__cxx11::basic_string<char>, std::allocator<std::__cxx11::basic_string<char>>>::_Vector_impl_data" }
%"struct.std::_Vector_base<std::__cxx11::basic_string<char>, std::allocator<std::__cxx11::basic_string<char>>>::_Vector_impl_data" = type { ptr, ptr, ptr }
%"class.colvarmodule::rvector" = type { double, double, double }
%"class.std::vector.59" = type { %"struct.std::_Vector_base.60" }
%"struct.std::_Vector_base.60" = type { %"struct.std::_Vector_base<colvarmodule::rvector, std::allocator<colvarmodule::rvector>>::_Vector_impl" }
%"struct.std::_Vector_base<colvarmodule::rvector, std::allocator<colvarmodule::rvector>>::_Vector_impl" = type { %"struct.std::_Vector_base<colvarmodule::rvector, std::allocator<colvarmodule::rvector>>::_Vector_impl_data" }
%"struct.std::_Vector_base<colvarmodule::rvector, std::allocator<colvarmodule::rvector>>::_Vector_impl_data" = type { ptr, ptr, ptr }
%"class.colvar::orientation" = type { %"class.colvar::cvc", ptr, %"class.colvarmodule::rvector", %"class.std::vector.59", %"class.std::vector.59", %"class.colvarmodule::rotation", %"class.colvarmodule::quaternion", %"class.std::unique_ptr" }
%"class.colvar::cvc" = type { %class.colvarparse, %class.colvardeps, %"class.std::__cxx11::basic_string", %"class.std::__cxx11::basic_string", %"class.std::__cxx11::basic_string", double, i32, double, double, i32, %"class.std::vector.54", i8, %"class.std::vector", %class.colvarvalue, %class.colvarvalue, %class.colvarvalue, %class.colvarvalue, %class.colvarvalue, %class.colvarvalue, double }
%class.colvarparse = type { %class.colvarparams, %"class.std::__cxx11::basic_string", %"class.std::__cxx11::basic_string", %"class.std::__cxx11::list", %"class.std::map.34", %"class.std::__cxx11::list.39", %"class.std::__cxx11::list.39", %"class.std::__cxx11::basic_string" }
%class.colvarparams = type { ptr, %"class.std::map", %"class.std::map.23" }
%"class.std::map" = type { %"class.std::_Rb_tree" }
%"class.std::_Rb_tree" = type { %"struct.std::_Rb_tree<std::__cxx11::basic_string<char>, std::pair<const std::__cxx11::basic_string<char>, const void *>, std::_Select1st<std::pair<const std::__cxx11::basic_string<char>, const void *>>, std::less<std::__cxx11::basic_string<char>>>::_Rb_tree_impl" }
%"struct.std::_Rb_tree<std::__cxx11::basic_string<char>, std::pair<const std::__cxx11::basic_string<char>, const void *>, std::_Select1st<std::pair<const std::__cxx11::basic_string<char>, const void *>>, std::less<std::__cxx11::basic_string<char>>>::_Rb_tree_impl" = type { %"struct.std::_Rb_tree_key_compare", %"struct.std::_Rb_tree_header" }
%"struct.std::_Rb_tree_key_compare" = type { %"struct.std::less" }
%"struct.std::less" = type { i8 }
%"struct.std::_Rb_tree_header" = type { %"struct.std::_Rb_tree_node_base", i64 }
%"struct.std::_Rb_tree_node_base" = type { i32, ptr, ptr, ptr }
%"class.std::map.23" = type { %"class.std::_Rb_tree.24" }
%"class.std::_Rb_tree.24" = type { %"struct.std::_Rb_tree<std::__cxx11::basic_string<char>, std::pair<const std::__cxx11::basic_string<char>, const colvarvalue *>, std::_Select1st<std::pair<const std::__cxx11::basic_string<char>, const colvarvalue *>>, std::less<std::__cxx11::basic_string<char>>>::_Rb_tree_impl" }
%"struct.std::_Rb_tree<std::__cxx11::basic_string<char>, std::pair<const std::__cxx11::basic_string<char>, const colvarvalue *>, std::_Select1st<std::pair<const std::__cxx11::basic_string<char>, const colvarvalue *>>, std::less<std::__cxx11::basic_string<char>>>::_Rb_tree_impl" = type { %"struct.std::_Rb_tree_key_compare", %"struct.std::_Rb_tree_header" }
%"class.std::__cxx11::list" = type { %"class.std::__cxx11::_List_base" }
%"class.std::__cxx11::_List_base" = type { %"struct.std::__cxx11::_List_base<std::__cxx11::basic_string<char>, std::allocator<std::__cxx11::basic_string<char>>>::_List_impl" }
%"struct.std::__cxx11::_List_base<std::__cxx11::basic_string<char>, std::allocator<std::__cxx11::basic_string<char>>>::_List_impl" = type { %"struct.std::__detail::_List_node_header" }
%"struct.std::__detail::_List_node_header" = type { %"struct.std::__detail::_List_node_base", i64 }
%"struct.std::__detail::_List_node_base" = type { ptr, ptr }
%"class.std::map.34" = type { %"class.std::_Rb_tree.35" }
%"class.std::_Rb_tree.35" = type { %"struct.std::_Rb_tree<std::__cxx11::basic_string<char>, std::pair<const std::__cxx11::basic_string<char>, colvarparse::key_set_mode>, std::_Select1st<std::pair<const std::__cxx11::basic_string<char>, colvarparse::key_set_mode>>, std::less<std::__cxx11::basic_string<char>>>::_Rb_tree_impl" }
%"struct.std::_Rb_tree<std::__cxx11::basic_string<char>, std::pair<const std::__cxx11::basic_string<char>, colvarparse::key_set_mode>, std::_Select1st<std::pair<const std::__cxx11::basic_string<char>, colvarparse::key_set_mode>>, std::less<std::__cxx11::basic_string<char>>>::_Rb_tree_impl" = type { %"struct.std::_Rb_tree_key_compare", %"struct.std::_Rb_tree_header" }
%"class.std::__cxx11::list.39" = type { %"class.std::__cxx11::_List_base.40" }
%"class.std::__cxx11::_List_base.40" = type { %"struct.std::__cxx11::_List_base<unsigned long, std::allocator<unsigned long>>::_List_impl" }
%"struct.std::__cxx11::_List_base<unsigned long, std::allocator<unsigned long>>::_List_impl" = type { %"struct.std::__detail::_List_node_header" }
%class.colvardeps = type { ptr, %"class.std::__cxx11::basic_string", i32, %"class.std::vector.44", %"class.std::vector.49", %"class.std::vector.49" }
%"class.std::vector.44" = type { %"struct.std::_Vector_base.45" }
%"struct.std::_Vector_base.45" = type { %"struct.std::_Vector_base<colvardeps::feature_state, std::allocator<colvardeps::feature_state>>::_Vector_impl" }
%"struct.std::_Vector_base<colvardeps::feature_state, std::allocator<colvardeps::feature_state>>::_Vector_impl" = type { %"struct.std::_Vector_base<colvardeps::feature_state, std::allocator<colvardeps::feature_state>>::_Vector_impl_data" }
%"struct.std::_Vector_base<colvardeps::feature_state, std::allocator<colvardeps::feature_state>>::_Vector_impl_data" = type { ptr, ptr, ptr }
%"class.std::vector.49" = type { %"struct.std::_Vector_base.50" }
%"struct.std::_Vector_base.50" = type { %"struct.std::_Vector_base<colvardeps *, std::allocator<colvardeps *>>::_Vector_impl" }
%"struct.std::_Vector_base<colvardeps *, std::allocator<colvardeps *>>::_Vector_impl" = type { %"struct.std::_Vector_base<colvardeps *, std::allocator<colvardeps *>>::_Vector_impl_data" }
%"struct.std::_Vector_base<colvardeps *, std::allocator<colvardeps *>>::_Vector_impl_data" = type { ptr, ptr, ptr }
%"class.std::__cxx11::basic_string" = type { %"struct.std::__cxx11::basic_string<char>::_Alloc_hider", i64, %union.anon }
%"struct.std::__cxx11::basic_string<char>::_Alloc_hider" = type { ptr }
%union.anon = type { i64, [8 x i8] }
%"class.std::vector.54" = type { %"struct.std::_Vector_base.55" }
%"struct.std::_Vector_base.55" = type { %"struct.std::_Vector_base<colvarmodule::atom_group *, std::allocator<colvarmodule::atom_group *>>::_Vector_impl" }
%"struct.std::_Vector_base<colvarmodule::atom_group *, std::allocator<colvarmodule::atom_group *>>::_Vector_impl" = type { %"struct.std::_Vector_base<colvarmodule::atom_group *, std::allocator<colvarmodule::atom_group *>>::_Vector_impl_data" }
%"struct.std::_Vector_base<colvarmodule::atom_group *, std::allocator<colvarmodule::atom_group *>>::_Vector_impl_data" = type { ptr, ptr, ptr }
%class.colvarvalue = type { i32, double, %"class.colvarmodule::rvector", %"class.colvarmodule::quaternion", %"class.colvarmodule::vector1d", %"class.std::vector.10", %"class.std::vector.15", %"class.std::vector.15" }
%"class.colvarmodule::vector1d" = type { %"class.std::vector.5" }
%"class.std::vector.5" = type { %"struct.std::_Vector_base.6" }
%"struct.std::_Vector_base.6" = type { %"struct.std::_Vector_base<double, std::allocator<double>>::_Vector_impl" }
%"struct.std::_Vector_base<double, std::allocator<double>>::_Vector_impl" = type { %"struct.std::_Vector_base<double, std::allocator<double>>::_Vector_impl_data" }
%"struct.std::_Vector_base<double, std::allocator<double>>::_Vector_impl_data" = type { ptr, ptr, ptr }
%"class.std::vector.10" = type { %"struct.std::_Vector_base.11" }
%"struct.std::_Vector_base.11" = type { %"struct.std::_Vector_base<colvarvalue::Type, std::allocator<colvarvalue::Type>>::_Vector_impl" }
%"struct.std::_Vector_base<colvarvalue::Type, std::allocator<colvarvalue::Type>>::_Vector_impl" = type { %"struct.std::_Vector_base<colvarvalue::Type, std::allocator<colvarvalue::Type>>::_Vector_impl_data" }
%"struct.std::_Vector_base<colvarvalue::Type, std::allocator<colvarvalue::Type>>::_Vector_impl_data" = type { ptr, ptr, ptr }
%"class.std::vector.15" = type { %"struct.std::_Vector_base.16" }
%"struct.std::_Vector_base.16" = type { %"struct.std::_Vector_base<int, std::allocator<int>>::_Vector_impl" }
%"struct.std::_Vector_base<int, std::allocator<int>>::_Vector_impl" = type { %"struct.std::_Vector_base<int, std::allocator<int>>::_Vector_impl_data" }
%"struct.std::_Vector_base<int, std::allocator<int>>::_Vector_impl_data" = type { ptr, ptr, ptr }
%"class.colvarmodule::rotation" = type { %"class.colvarmodule::rmatrix", [4 x [4 x double]], [4 x double], [4 x [4 x double]], [4 x [4 x double]], i8, %"class.colvarmodule::quaternion", %"class.colvarmodule::quaternion", ptr }
%"class.colvarmodule::rmatrix" = type { double, double, double, double, double, double, double, double, double }
%"class.colvarmodule::quaternion" = type { double, double, double, double }
%"class.std::unique_ptr" = type { %"struct.std::__uniq_ptr_data" }
%"struct.std::__uniq_ptr_data" = type { %"class.std::__uniq_ptr_impl" }
%"class.std::__uniq_ptr_impl" = type { %"class.std::tuple" }
%"class.std::tuple" = type { %"struct.std::_Tuple_impl" }
%"struct.std::_Tuple_impl" = type { %"struct.std::_Head_base.65" }
%"struct.std::_Head_base.65" = type { ptr }
%"class.colvarmodule::atom_group" = type { %class.colvarparse, %class.colvardeps, %"class.std::__cxx11::basic_string", %"class.std::__cxx11::basic_string", %"class.std::vector.66", %"class.std::vector.15", %"class.std::vector.15", %"class.std::vector.15", %"class.colvarmodule::rvector", i32, i8, %"class.colvarmodule::rotation", ptr, i8, %"class.std::vector.59", %"class.colvarmodule::rvector", ptr, double, double, i8, %"class.colvarmodule::rvector", %"class.colvarmodule::rvector", %"class.colvarmodule::rvector", %"class.colvarmodule::rvector", %"class.colvarmodule::rvector", %"class.std::vector.59" }
%"class.std::vector.66" = type { %"struct.std::_Vector_base.67" }
%"struct.std::_Vector_base.67" = type { %"struct.std::_Vector_base<colvarmodule::atom, std::allocator<colvarmodule::atom>>::_Vector_impl" }
%"struct.std::_Vector_base<colvarmodule::atom, std::allocator<colvarmodule::atom>>::_Vector_impl" = type { %"struct.std::_Vector_base<colvarmodule::atom, std::allocator<colvarmodule::atom>>::_Vector_impl_data" }
%"struct.std::_Vector_base<colvarmodule::atom, std::allocator<colvarmodule::atom>>::_Vector_impl_data" = type { ptr, ptr, ptr }

; Function Attrs: mustprogress uwtable
define void @_ZN6colvar17orientation_angle11apply_forceERK11colvarvalue(ptr noundef nonnull align 8 dereferenceable(2336) %0, ptr noundef nonnull align 8 dereferenceable(168) %1) unnamed_addr #2 align 2 {
  %3 = alloca ptr, align 8
  %4 = alloca ptr, align 8
  %5 = alloca ptr, align 8
  store ptr %0, ptr %3, align 8
  store ptr %1, ptr %4, align 8
  %6 = load ptr, ptr %3, align 8
  %7 = load ptr, ptr %4, align 8
  %8 = getelementptr inbounds %class.colvarvalue, ptr %7, i32 0, i32 1
  store ptr %8, ptr %5, align 8
  %9 = getelementptr inbounds %"class.colvar::orientation", ptr %6, i32 0, i32 1
  %10 = load ptr, ptr %9, align 8
  %11 = getelementptr inbounds %"class.colvarmodule::atom_group", ptr %10, i32 0, i32 19
  %12 = load i8, ptr %11, align 8
  %13 = trunc i8 %12 to i1
  br i1 %13, label %18, label %14

14:                                               ; preds = %2
  %15 = getelementptr inbounds %"class.colvar::orientation", ptr %6, i32 0, i32 1
  %16 = load ptr, ptr %15, align 8
  %17 = load ptr, ptr %5, align 8
  call void @_ZN12colvarmodule10atom_group18apply_colvar_forceERKd(ptr noundef nonnull align 8 dereferenceable(1440) %16, ptr noundef nonnull align 8 dereferenceable(8) %17)
  br label %18

18:                                               ; preds = %14, %2
  ret void
}